target datalayout = "e-m:e-p270:32:32-p271:32:32-p272:64:64-i64:64-i128:128-f80:128-n8:16:32:64-S128"
target triple = "x86_64-pc-linux-gnu"

%struct._zend_libxml_globals = type { %struct._zval_struct, %struct.smart_str, ptr, %struct._zend_fcall_info_cache, i8 }
%struct._zval_struct = type { %union._zend_value, %union.anon, %union.anon.2 }
%union._zend_value = type { i64 }
%union.anon = type { i32 }
%union.anon.2 = type { i32 }
%struct.smart_str = type { ptr, i64 }
%struct._zend_fcall_info_cache = type { ptr, ptr, ptr, ptr, ptr }
%struct._zend_execute_data = type { ptr, ptr, ptr, ptr, %struct._zval_struct, ptr, ptr, ptr, ptr }

@libxml_globals = internal global %struct._zend_libxml_globals zeroinitializer, align 8

; Function Attrs: nounwind uwtable
define hidden void @zif_libxml_use_internal_errors(ptr noundef %0, ptr noundef %1) #0 {
  %3 = alloca ptr, align 8
  %4 = alloca ptr, align 8
  %5 = alloca ptr, align 8
  %6 = alloca i1, align 1
  %7 = alloca ptr, align 8
  %8 = alloca ptr, align 8
  %9 = alloca ptr, align 8
  %10 = alloca i8, align 1
  %11 = alloca i32, align 4
  %12 = alloca i8, align 1
  %13 = alloca ptr, align 8
  %14 = alloca ptr, align 8
  %15 = alloca ptr, align 8
  %16 = alloca i8, align 1
  %17 = alloca i32, align 4
  %18 = alloca ptr, align 8
  %19 = alloca ptr, align 8
  %20 = alloca ptr, align 8
  %21 = alloca i8, align 1
  %22 = alloca i8, align 1
  %23 = alloca i8, align 1
  %24 = alloca i32, align 4
  %25 = alloca i32, align 4
  %26 = alloca i32, align 4
  %27 = alloca i32, align 4
  %28 = alloca i32, align 4
  %29 = alloca ptr, align 8
  %30 = alloca ptr, align 8
  %31 = alloca i32, align 4
  %32 = alloca ptr, align 8
  %33 = alloca i8, align 1
  %34 = alloca i8, align 1
  %35 = alloca i32, align 4
  store ptr %0, ptr %18, align 8
  store ptr %1, ptr %19, align 8
  store i8 1, ptr %22, align 1
  br label %36

36:                                               ; preds = %2
  store i32 0, ptr %24, align 4
  store i32 0, ptr %25, align 4
  store i32 1, ptr %26, align 4
  %37 = load ptr, ptr %18, align 8
  %38 = getelementptr inbounds %struct._zend_execute_data, ptr %37, i32 0, i32 4
  %39 = getelementptr inbounds %struct._zval_struct, ptr %38, i32 0, i32 2
  %40 = load i32, ptr %39, align 4
  store i32 %40, ptr %27, align 4
  store i32 0, ptr %28, align 4
  store ptr null, ptr %30, align 8
  store i32 0, ptr %31, align 4
  store ptr null, ptr %32, align 8
  store i8 0, ptr %33, align 1
  store i8 0, ptr %34, align 1
  store i32 0, ptr %35, align 4
  br label %41

41:                                               ; preds = %36
  %42 = load i32, ptr %27, align 4
  %43 = load i32, ptr %25, align 4
  %44 = icmp ult i32 %42, %43
  %45 = xor i1 %44, true
  %46 = xor i1 %45, true
  %47 = zext i1 %46 to i32
  %48 = sext i32 %47 to i64
  %49 = icmp ne i64 %48, 0
  br i1 %49, label %59, label %50

50:                                               ; preds = %41
  %51 = load i32, ptr %27, align 4
  %52 = load i32, ptr %26, align 4
  %53 = icmp ugt i32 %51, %52
  %54 = xor i1 %53, true
  %55 = xor i1 %54, true
  %56 = zext i1 %55 to i32
  %57 = sext i32 %56 to i64
  %58 = icmp ne i64 %57, 0
  br i1 %58, label %59, label %62

59:                                               ; preds = %50, %41
  %60 = load i32, ptr %25, align 4
  %61 = load i32, ptr %26, align 4
  call void @zend_wrong_parameters_count_error(i32 noundef %60, i32 noundef %61)
  store i32 1, ptr %35, align 4
  br label %181

62:                                               ; preds = %50
  %63 = load ptr, ptr %18, align 8
  %64 = getelementptr inbounds %struct._zval_struct, ptr %63, i64 4
  store ptr %64, ptr %29, align 8
  store i8 1, ptr %34, align 1
  %65 = load i32, ptr %28, align 4
  %66 = add i32 %65, 1
  store i32 %66, ptr %28, align 4
  %67 = load i32, ptr %28, align 4
  %68 = load i32, ptr %25, align 4
  %69 = icmp ule i32 %67, %68
  br i1 %69, label %75, label %70

70:                                               ; preds = %62
  %71 = load i8, ptr %34, align 1
  %72 = trunc i8 %71 to i1
  %73 = zext i1 %72 to i32
  %74 = icmp eq i32 %73, 1
  br label %75

75:                                               ; preds = %70, %62
  %76 = phi i1 [ true, %62 ], [ %74, %70 ]
  call void @llvm.assume(i1 %76)
  %77 = load i32, ptr %28, align 4
  %78 = load i32, ptr %25, align 4
  %79 = icmp ugt i32 %77, %78
  br i1 %79, label %85, label %80

80:                                               ; preds = %75
  %81 = load i8, ptr %34, align 1
  %82 = trunc i8 %81 to i1
  %83 = zext i1 %82 to i32
  %84 = icmp eq i32 %83, 0
  br label %85

85:                                               ; preds = %80, %75
  %86 = phi i1 [ true, %75 ], [ %84, %80 ]
  call void @llvm.assume(i1 %86)
  %87 = load i8, ptr %34, align 1
  %88 = trunc i8 %87 to i1
  br i1 %88, label %89, label %100

89:                                               ; preds = %85
  %90 = load i32, ptr %28, align 4
  %91 = load i32, ptr %27, align 4
  %92 = icmp ugt i32 %90, %91
  %93 = xor i1 %92, true
  %94 = xor i1 %93, true
  %95 = zext i1 %94 to i32
  %96 = sext i32 %95 to i64
  %97 = icmp ne i64 %96, 0
  br i1 %97, label %98, label %99

98:                                               ; preds = %89
  br label %181

99:                                               ; preds = %89
  br label %100

100:                                              ; preds = %99, %85
  %101 = load ptr, ptr %29, align 8
  %102 = getelementptr inbounds %struct._zval_struct, ptr %101, i32 1
  store ptr %102, ptr %29, align 8
  %103 = load ptr, ptr %29, align 8
  store ptr %103, ptr %30, align 8
  %104 = load ptr, ptr %30, align 8
  %105 = load i32, ptr %28, align 4
  store ptr %104, ptr %13, align 8
  store ptr %21, ptr %14, align 8
  store ptr %22, ptr %15, align 8
  store i8 1, ptr %16, align 1
  store i32 %105, ptr %17, align 4
  %106 = load ptr, ptr %13, align 8
  %107 = load ptr, ptr %14, align 8
  %108 = load ptr, ptr %15, align 8
  %109 = load i8, ptr %16, align 1
  %110 = trunc i8 %109 to i1
  %111 = load i32, ptr %17, align 4
  store ptr %106, ptr %7, align 8
  store ptr %107, ptr %8, align 8
  store ptr %108, ptr %9, align 8
  %112 = zext i1 %110 to i8
  store i8 %112, ptr %10, align 1
  store i32 %111, ptr %11, align 4
  store i8 0, ptr %12, align 1
  %113 = load i8, ptr %10, align 1
  %114 = trunc i8 %113 to i1
  br i1 %114, label %115, label %117

115:                                              ; preds = %100
  %116 = load ptr, ptr %9, align 8
  store i8 0, ptr %116, align 1
  br label %117

117:                                              ; preds = %115, %100
  %118 = load ptr, ptr %7, align 8
  store ptr %118, ptr %3, align 8
  %119 = load ptr, ptr %3, align 8
  %120 = getelementptr inbounds %struct._zval_struct, ptr %119, i32 0, i32 1
  %121 = load i8, ptr %120, align 8
  %122 = zext i8 %121 to i32
  %123 = icmp eq i32 %122, 3
  br i1 %123, label %124, label %126

124:                                              ; preds = %117
  %125 = load ptr, ptr %8, align 8
  store i8 1, ptr %125, align 1
  br label %162

126:                                              ; preds = %117
  %127 = load ptr, ptr %7, align 8
  store ptr %127, ptr %4, align 8
  %128 = load ptr, ptr %4, align 8
  %129 = getelementptr inbounds %struct._zval_struct, ptr %128, i32 0, i32 1
  %130 = load i8, ptr %129, align 8
  %131 = zext i8 %130 to i32
  %132 = icmp eq i32 %131, 2
  br i1 %132, label %133, label %135

133:                                              ; preds = %126
  %134 = load ptr, ptr %8, align 8
  store i8 0, ptr %134, align 1
  br label %161

135:                                              ; preds = %126
  %136 = load i8, ptr %10, align 1
  %137 = trunc i8 %136 to i1
  br i1 %137, label %138, label %148

138:                                              ; preds = %135
  %139 = load ptr, ptr %7, align 8
  store ptr %139, ptr %5, align 8
  %140 = load ptr, ptr %5, align 8
  %141 = getelementptr inbounds %struct._zval_struct, ptr %140, i32 0, i32 1
  %142 = load i8, ptr %141, align 8
  %143 = zext i8 %142 to i32
  %144 = icmp eq i32 %143, 1
  br i1 %144, label %145, label %148

145:                                              ; preds = %138
  %146 = load ptr, ptr %9, align 8
  store i8 1, ptr %146, align 1
  %147 = load ptr, ptr %8, align 8
  store i8 0, ptr %147, align 1
  br label %161

148:                                              ; preds = %138, %135
  %149 = load i8, ptr %12, align 1
  %150 = trunc i8 %149 to i1
  br i1 %150, label %151, label %156

151:                                              ; preds = %148
  %152 = load ptr, ptr %7, align 8
  %153 = load ptr, ptr %8, align 8
  %154 = load i32, ptr %11, align 4
  %155 = call zeroext i1 @zend_flf_parse_arg_bool_slow(ptr noundef %152, ptr noundef %153, i32 noundef %154) #11
  store i1 %155, ptr %6, align 1
  br label %163

156:                                              ; preds = %148
  %157 = load ptr, ptr %7, align 8
  %158 = load ptr, ptr %8, align 8
  %159 = load i32, ptr %11, align 4
  %160 = call zeroext i1 @zend_parse_arg_bool_slow(ptr noundef %157, ptr noundef %158, i32 noundef %159) #11
  store i1 %160, ptr %6, align 1
  br label %163

161:                                              ; preds = %145, %133
  br label %162

162:                                              ; preds = %161, %124
  store i1 true, ptr %6, align 1
  br label %163

163:                                              ; preds = %162, %156, %151
  %164 = load i1, ptr %6, align 1
  %165 = xor i1 %164, true
  %166 = xor i1 %165, true
  %167 = xor i1 %166, true
  %168 = zext i1 %167 to i32
  %169 = sext i32 %168 to i64
  %170 = icmp ne i64 %169, 0
  br i1 %170, label %171, label %172

171:                                              ; preds = %163
  store i32 3, ptr %31, align 4
  store i32 9, ptr %35, align 4
  br label %181

172:                                              ; preds = %163
  %173 = load i32, ptr %28, align 4
  %174 = load i32, ptr %26, align 4
  %175 = icmp eq i32 %173, %174
  br i1 %175, label %179, label %176

176:                                              ; preds = %172
  %177 = load i32, ptr %26, align 4
  %178 = icmp eq i32 %177, -1
  br label %179

179:                                              ; preds = %176, %172
  %180 = phi i1 [ true, %172 ], [ %178, %176 ]
  call void @llvm.assume(i1 %180)
  br label %181

181:                                              ; preds = %179, %171, %98, %59
  %182 = load i32, ptr %35, align 4
  %183 = icmp ne i32 %182, 0
  %184 = xor i1 %183, true
  %185 = xor i1 %184, true
  %186 = zext i1 %185 to i32
  %187 = sext i32 %186 to i64
  %188 = icmp ne i64 %187, 0
  br i1 %188, label %189, label %195

189:                                              ; preds = %181
  %190 = load i32, ptr %35, align 4
  %191 = load i32, ptr %28, align 4
  %192 = load ptr, ptr %32, align 8
  %193 = load i32, ptr %31, align 4
  %194 = load ptr, ptr %30, align 8
  call void @zend_wrong_parameter_error(i32 noundef %190, i32 noundef %191, ptr noundef %192, i32 noundef %193, ptr noundef %194)
  br label %247

195:                                              ; preds = %181
  br label %196

196:                                              ; preds = %195
  %197 = call ptr @__xmlStructuredError()
  %198 = load ptr, ptr %197, align 8
  store ptr %198, ptr %20, align 8
  %199 = load ptr, ptr %20, align 8
  %200 = icmp ne ptr %199, null
  br i1 %200, label %201, label %205

201:                                              ; preds = %196
  %202 = load ptr, ptr %20, align 8
  %203 = icmp eq ptr %202, @php_libxml_structured_error_handler
  br i1 %203, label %204, label %205

204:                                              ; preds = %201
  store i8 1, ptr %23, align 1
  br label %206

205:                                              ; preds = %201, %196
  store i8 0, ptr %23, align 1
  br label %206

206:                                              ; preds = %205, %204
  %207 = load i8, ptr %22, align 1
  %208 = trunc i8 %207 to i1
  br i1 %208, label %209, label %219

209:                                              ; preds = %206
  br label %210

210:                                              ; preds = %209
  br label %211

211:                                              ; preds = %210
  %212 = load i8, ptr %23, align 1
  %213 = trunc i8 %212 to i1
  %214 = select i1 %213, i32 3, i32 2
  %215 = load ptr, ptr %19, align 8
  %216 = getelementptr inbounds %struct._zval_struct, ptr %215, i32 0, i32 1
  store i32 %214, ptr %216, align 8
  br label %217

217:                                              ; preds = %211
  br label %247

218:                                              ; No predecessors!
  br label %219

219:                                              ; preds = %218, %206
  %220 = load i8, ptr %21, align 1
  %221 = trunc i8 %220 to i1
  %222 = zext i1 %221 to i32
  %223 = icmp eq i32 %222, 0
  br i1 %223, label %224, label %231

224:                                              ; preds = %219
  call void @xmlSetStructuredErrorFunc(ptr noundef null, ptr noundef null)
  %225 = load ptr, ptr getelementptr inbounds (%struct._zend_libxml_globals, ptr @libxml_globals, i32 0, i32 2), align 8
  %226 = icmp ne ptr %225, null
  br i1 %226, label %227, label %230

227:                                              ; preds = %224
  %228 = load ptr, ptr getelementptr inbounds (%struct._zend_libxml_globals, ptr @libxml_globals, i32 0, i32 2), align 8
  call void @zend_llist_destroy(ptr noundef %228)
  %229 = load ptr, ptr getelementptr inbounds (%struct._zend_libxml_globals, ptr @libxml_globals, i32 0, i32 2), align 8
  call void @_efree(ptr noundef %229)
  store ptr null, ptr getelementptr inbounds (%struct._zend_libxml_globals, ptr @libxml_globals, i32 0, i32 2), align 8
  br label %230

230:                                              ; preds = %227, %224
  br label %238

231:                                              ; preds = %219
  call void @xmlSetStructuredErrorFunc(ptr noundef null, ptr noundef @php_libxml_structured_error_handler)
  %232 = load ptr, ptr getelementptr inbounds (%struct._zend_libxml_globals, ptr @libxml_globals, i32 0, i32 2), align 8
  %233 = icmp eq ptr %232, null
  br i1 %233, label %234, label %237

234:                                              ; preds = %231
  %235 = call noalias ptr @_emalloc_56()
  store ptr %235, ptr getelementptr inbounds (%struct._zend_libxml_globals, ptr @libxml_globals, i32 0, i32 2), align 8
  %236 = load ptr, ptr getelementptr inbounds (%struct._zend_libxml_globals, ptr @libxml_globals, i32 0, i32 2), align 8
  call void @zend_llist_init(ptr noundef %236, i64 noundef 88, ptr noundef @_php_libxml_free_error, i8 noundef zeroext 0)
  br label %237

237:                                              ; preds = %234, %231
  br label %238

238:                                              ; preds = %237, %230
  br label %239

239:                                              ; preds = %238
  br label %240

240:                                              ; preds = %239
  %241 = load i8, ptr %23, align 1
  %242 = trunc i8 %241 to i1
  %243 = select i1 %242, i32 3, i32 2
  %244 = load ptr, ptr %19, align 8
  %245 = getelementptr inbounds %struct._zval_struct, ptr %244, i32 0, i32 1
  store i32 %243, ptr %245, align 8
  br label %246

246:                                              ; preds = %240
  br label %247

247:                                              ; preds = %246, %217, %189
  ret void
}