; Function Attrs: nounwind uwtable
define hidden void @zif_libxml_use_internal_errors(ptr noundef %0, ptr nocapture noundef writeonly %1) #0 {
  %3 = alloca i8, align 1
  %4 = getelementptr inbounds i8, ptr %0, i64 44
  %5 = load i32, ptr %4, align 4
  %6 = icmp ugt i32 %5, 1
  br i1 %6, label %7, label %8

7:                                                ; preds = %2
  tail call void @zend_wrong_parameters_count_error(i32 noundef 0, i32 noundef 1) #17
  br label %.thread110

8:                                                ; preds = %2
  %9 = icmp eq i32 %5, 0
  br i1 %9, label %18, label %10

10:                                               ; preds = %8
  %11 = getelementptr inbounds i8, ptr %0, i64 88
  %12 = load i8, ptr %11, align 8
  switch i8 %12, label %15 [
    i8 3, label %13
    i8 2, label %14
    i8 1, label %18
  ]

13:                                               ; preds = %10
  store i8 1, ptr %3, align 1
  br label %24

14:                                               ; preds = %10
  store i8 0, ptr %3, align 1
  br label %24

15:                                               ; preds = %10
  %16 = getelementptr inbounds i8, ptr %0, i64 80
  %17 = call zeroext i1 @zend_parse_arg_bool_slow(ptr noundef nonnull %16, ptr noundef nonnull %3, i32 noundef 1) #17
  %.fr = freeze i1 %17
  br i1 %.fr, label %24, label %.thread110

.thread110:                                       ; preds = %15, %7
  %.0120 = phi i32 [ 1, %7 ], [ 9, %15 ]
  %.065119 = phi i32 [ 0, %7 ], [ 3, %15 ]
  %.066118 = phi ptr [ null, %7 ], [ %16, %15 ]
  %.067117 = phi i32 [ 0, %7 ], [ 1, %15 ]
  call void @zend_wrong_parameter_error(i32 noundef %.0120, i32 noundef %.067117, ptr noundef null, i32 noundef %.065119, ptr noundef %.066118) #17
  br label %43

18:                                               ; preds = %10, %8
  %19 = tail call ptr @__xmlStructuredError() #17
  %20 = load ptr, ptr %19, align 8
  %21 = icmp eq ptr %20, @php_libxml_structured_error_handler
  %22 = select i1 %21, i32 3, i32 2
  %23 = getelementptr inbounds i8, ptr %1, i64 8
  store i32 %22, ptr %23, align 8
  br label %43

24:                                               ; preds = %14, %13, %15
  %25 = call ptr @__xmlStructuredError() #17
  %26 = load ptr, ptr %25, align 8
  %27 = icmp eq ptr %26, @php_libxml_structured_error_handler
  %28 = load i8, ptr %3, align 1
  %29 = and i8 %28, 1
  %30 = icmp eq i8 %29, 0
  br i1 %30, label %31, label %35

31:                                               ; preds = %24
  call void @xmlSetStructuredErrorFunc(ptr noundef null, ptr noundef null) #17
  %32 = load ptr, ptr getelementptr inbounds (%struct._zend_libxml_globals, ptr @libxml_globals, i64 0, i32 2), align 8
  %.not73 = icmp eq ptr %32, null
  br i1 %.not73, label %40, label %33

33:                                               ; preds = %31
  call void @zend_llist_destroy(ptr noundef nonnull %32) #17
  %34 = load ptr, ptr getelementptr inbounds (%struct._zend_libxml_globals, ptr @libxml_globals, i64 0, i32 2), align 8
  call void @_efree(ptr noundef %34) #17
  store ptr null, ptr getelementptr inbounds (%struct._zend_libxml_globals, ptr @libxml_globals, i64 0, i32 2), align 8
  br label %40

35:                                               ; preds = %24
  call void @xmlSetStructuredErrorFunc(ptr noundef null, ptr noundef nonnull @php_libxml_structured_error_handler) #17
  %36 = load ptr, ptr getelementptr inbounds (%struct._zend_libxml_globals, ptr @libxml_globals, i64 0, i32 2), align 8
  %37 = icmp eq ptr %36, null
  br i1 %37, label %38, label %40

38:                                               ; preds = %35
  %39 = call noalias ptr @_emalloc_56() #17
  store ptr %39, ptr getelementptr inbounds (%struct._zend_libxml_globals, ptr @libxml_globals, i64 0, i32 2), align 8
  call void @zend_llist_init(ptr noundef %39, i64 noundef 88, ptr noundef nonnull @_php_libxml_free_error, i8 noundef zeroext 0) #17
  br label %40

40:                                               ; preds = %35, %38, %31, %33
  %41 = select i1 %27, i32 3, i32 2
  %42 = getelementptr inbounds i8, ptr %1, i64 8
  store i32 %41, ptr %42, align 8
  br label %43

43:                                               ; preds = %40, %18, %.thread110
  ret void
}